Certificate:
    Data:
        Version: 3 (0x2)
        Serial Number: 1 (0x1)
    Signature Algorithm: sha256WithRSAEncryption
        Issuer: CN=Fake certifying authority, ST=MH, C=IN/emailAddress=chandrakant.agarkar@linux.com, O=Linux Organization, OU=random organization
        Validity
            Not Before: Apr  7 06:27:02 2023 GMT
            Not After : Apr  5 06:27:02 2028 GMT
        Subject: CN=server, ST=MH, C=IN/emailAddress=chandrakant.agarkar@linux.com, O=Linux Organization, OU=server organization
        Subject Public Key Info:
            Public Key Algorithm: rsaEncryption
                Public-Key: (2048 bit)
                Modulus:
                    00:f5:6c:7a:0f:d2:ff:88:a4:ad:18:11:05:71:16:
                    0d:5c:50:b8:fc:8b:d6:7e:b0:9d:5a:a8:bb:af:98:
                    43:66:9f:d4:9e:db:79:19:6c:e2:40:ec:f7:54:17:
                    17:86:37:9e:fd:4b:29:f0:e4:93:a4:c9:1c:b5:b5:
                    7e:fc:4a:fd:15:2c:bf:f7:0f:bc:f5:3c:f0:24:dc:
                    9c:d5:1e:97:4e:58:27:ff:66:72:99:a1:57:2c:27:
                    07:45:25:b3:87:88:09:3b:4a:4e:99:7e:f2:9c:83:
                    68:4d:4b:78:34:84:79:2e:75:56:80:f5:4f:68:7e:
                    ae:51:1f:dc:72:7c:6d:aa:6f:69:bf:0d:23:1c:ce:
                    81:55:82:bb:df:4a:d3:05:cf:53:b7:68:16:dd:35:
                    c9:92:31:90:dd:19:8f:4b:7c:15:1a:09:cb:61:3e:
                    22:5c:ff:90:ec:42:69:bf:6f:c4:af:35:86:09:89:
                    ae:0a:29:33:cf:c3:d4:80:3a:0f:86:78:54:13:97:
                    93:74:87:80:28:bf:1c:c2:74:d4:60:a0:ea:9b:e3:
                    64:09:1f:9f:e6:bd:b5:8b:d9:ea:98:fd:94:bc:05:
                    dc:01:59:e7:8a:09:e1:2d:46:7e:c9:72:45:74:e1:
                    4b:ce:84:9e:60:92:44:68:05:09:54:92:e7:d3:94:
                    d8:af
                Exponent: 65537 (0x10001)
        X509v3 extensions:
            X509v3 Basic Constraints: 
                CA:FALSE
            X509v3 Key Usage: 
                Digital Signature, Non Repudiation, Key Encipherment
            X509v3 Subject Alternative Name: 
                DNS:server.
    Signature Algorithm: sha256WithRSAEncryption
         17:67:35:de:89:71:9a:d7:20:ef:03:ba:c7:d0:10:5d:9f:e2:
         f2:05:7b:6d:09:81:ab:69:7f:03:27:c7:c1:8c:80:22:e8:f4:
         a5:cb:cf:1b:c4:ef:7a:67:15:b0:76:bc:84:ab:8a:4f:0b:7f:
         b0:06:b5:3f:8e:80:74:03:62:e9:62:81:33:43:2c:e3:47:dd:
         6c:91:0b:ba:09:f2:69:82:da:58:9d:27:8b:d1:af:8f:f8:6a:
         bb:f0:fa:66:42:19:6c:8b:9e:ee:7b:fc:cb:07:fb:b7:24:50:
         0d:75:66:ce:a8:64:2c:50:ac:b2:e7:12:9c:74:9b:ea:fe:53:
         6e:02:64:2e:f4:98:ae:c5:c0:b8:12:dd:91:1c:b2:6f:e9:d1:
         77:d6:e7:56:13:67:99:5f:e5:cb:82:30:37:99:83:66:9a:d0:
         27:70:4d:8d:5e:f8:04:c9:7d:ac:4f:e7:a9:4e:1f:dc:f4:b4:
         f3:5b:6c:97:56:f9:c1:a4:af:78:47:3d:0b:5f:05:51:a0:c5:
         f1:d0:eb:e9:47:6a:46:54:8e:0a:ed:24:08:5a:ee:43:d3:06:
         35:10:0c:40:aa:fd:84:04:4a:c8:6d:a5:a9:4d:52:1b:ad:01:
         56:a4:ea:8e:99:4b:9f:d1:bf:18:f2:57:09:be:3d:6e:09:ae:
         c0:5b:c8:3c
-----BEGIN CERTIFICATE-----
MIID5jCCAs6gAwIBAgIBATANBgkqhkiG9w0BAQsFADCBpzEiMCAGA1UEAwwZRmFr
ZSBjZXJ0aWZ5aW5nIGF1dGhvcml0eTELMAkGA1UECAwCTUgxCzAJBgNVBAYTAklO
MSwwKgYJKoZIhvcNAQkBFh1jaGFuZHJha2FudC5hZ2Fya2FyQGxpbnV4LmNvbTEb
MBkGA1UECgwSTGludXggT3JnYW5pemF0aW9uMRwwGgYDVQQLDBNyYW5kb20gb3Jn
YW5pemF0aW9uMB4XDTIzMDQwNzA2MjcwMloXDTI4MDQwNTA2MjcwMlowgZQxDzAN
BgNVBAMMBnNlcnZlcjELMAkGA1UECAwCTUgxCzAJBgNVBAYTAklOMSwwKgYJKoZI
hvcNAQkBFh1jaGFuZHJha2FudC5hZ2Fya2FyQGxpbnV4LmNvbTEbMBkGA1UECgwS
TGludXggT3JnYW5pemF0aW9uMRwwGgYDVQQLDBNzZXJ2ZXIgb3JnYW5pemF0aW9u
MIIBIjANBgkqhkiG9w0BAQEFAAOCAQ8AMIIBCgKCAQEA9Wx6D9L/iKStGBEFcRYN
XFC4/IvWfrCdWqi7r5hDZp/Untt5GWziQOz3VBcXhjee/Usp8OSTpMkctbV+/Er9
FSy/9w+89TzwJNyc1R6XTlgn/2ZymaFXLCcHRSWzh4gJO0pOmX7ynINoTUt4NIR5
LnVWgPVPaH6uUR/ccnxtqm9pvw0jHM6BVYK730rTBc9Tt2gW3TXJkjGQ3RmPS3wV
GgnLYT4iXP+Q7EJpv2/ErzWGCYmuCikzz8PUgDoPhnhUE5eTdIeAKL8cwnTUYKDq
m+NkCR+f5r21i9nqmP2UvAXcAVnnignhLUZ+yXJFdOFLzoSeYJJEaAUJVJLn05TY
rwIDAQABoy4wLDAJBgNVHRMEAjAAMAsGA1UdDwQEAwIF4DASBgNVHREECzAJggdz
ZXJ2ZXIuMA0GCSqGSIb3DQEBCwUAA4IBAQAXZzXeiXGa1yDvA7rH0BBdn+LyBXtt
CYGraX8DJ8fBjIAi6PSly88bxO96ZxWwdryEq4pPC3+wBrU/joB0A2LpYoEzQyzj
R91skQu6CfJpgtpYnSeL0a+P+Gq78PpmQhlsi57ue/zLB/u3JFANdWbOqGQsUKyy
5xKcdJvq/lNuAmQu9JiuxcC4Et2RHLJv6dF31udWE2eZX+XLgjA3mYNmmtAncE2N
XvgEyX2sT+epTh/c9LTzW2yXVvnBpK94Rz0LXwVRoMXx0OvpR2pGVI4K7SQIWu5D
0wY1EAxAqv2EBErIbaWpTVIbrQFWpOqOmUuf0b8Y8lcJvj1uCa7AW8g8
-----END CERTIFICATE-----
